; Function Attrs: mustprogress nofree norecurse nosync nounwind willreturn memory(read, argmem: readwrite, inaccessiblemem: none) uwtable
define dso_local void @_ZNK4llvm12X86InstrInfo15isCopyInstrImplERKNS_12MachineInstrE(ptr dead_on_unwind noalias writable writeonly sret(%"class.std::optional.516") align 8 captures(none) initializes((16, 17)) %0, ptr nonnull readnone align 8 captures(none) %1, ptr noundef nonnull readonly align 8 captures(none) dereferenceable(70) %2) unnamed_addr #5 align 2 {
  %4 = getelementptr inbounds nuw i8, ptr %2, i64 16
  %5 = load ptr, ptr %4, align 8
  %6 = getelementptr inbounds nuw i8, ptr %5, i64 16
  %7 = load i64, ptr %6, align 8
  %8 = and i64 %7, 16384
  %.not5 = icmp eq i64 %8, 0
  br i1 %.not5, label %17, label %9

9:                                                ; preds = %3
  %10 = getelementptr inbounds nuw i8, ptr %2, i64 32
  %11 = load ptr, ptr %10, align 8
  %12 = load i32, ptr %11, align 8
  %13 = and i32 %12, 268435456
  %.not6 = icmp eq i32 %13, 0
  %14 = and i32 %12, 1048320
  %.not = icmp eq i32 %14, 0
  %or.cond = or i1 %.not6, %.not
  br i1 %or.cond, label %15, label %17

15:                                               ; preds = %9
  %16 = getelementptr inbounds nuw i8, ptr %11, i64 32
  store ptr %11, ptr %0, align 8
  %.sroa.2.0..sroa_idx = getelementptr inbounds nuw i8, ptr %0, i64 8
  store ptr %16, ptr %.sroa.2.0..sroa_idx, align 8
  br label %17

17:                                               ; preds = %3, %9, %15
  %.sink = phi i8 [ 1, %15 ], [ 0, %9 ], [ 0, %3 ]
  %18 = getelementptr inbounds nuw i8, ptr %0, i64 16
  store i8 %.sink, ptr %18, align 8
  ret void
}